target datalayout = "e-m:e-p270:32:32-p271:32:32-p272:64:64-i64:64-i128:128-f80:128-n8:16:32:64-S128"
target triple = "x86_64-pc-linux-gnu"

%"class.grpc_core::CompressionAlgorithmSet" = type { %"class.grpc_core::BitSet" }
%"class.grpc_core::BitSet" = type { [1 x i8] }

; Function Attrs: mustprogress nounwind uwtable
define linkonce_odr noundef zeroext i8 @_ZN9grpc_core6BitSetILm3ELm8EE8mask_forEm(i64 noundef %0) #4 comdat align 2 {
  %2 = alloca i64, align 8
  store i64 %0, ptr %2, align 8, !tbaa !17
  %3 = load i64, ptr %2, align 8, !tbaa !17
  %4 = urem i64 %3, 8
  %5 = trunc i64 %4 to i32
  %6 = shl i32 1, %5
  %7 = trunc i32 %6 to i8
  ret i8 %7
}

; Function Attrs: mustprogress nounwind uwtable
define linkonce_odr noundef i64 @_ZN9grpc_core6BitSetILm3ELm8EE8unit_forEm(i64 noundef %0) #4 comdat align 2 {
  %2 = alloca i64, align 8
  store i64 %0, ptr %2, align 8, !tbaa !17
  %3 = load i64, ptr %2, align 8, !tbaa !17
  %4 = udiv i64 %3, 8
  ret i64 %4
}

; Function Attrs: mustprogress uwtable
define linkonce_odr noundef zeroext i1 @_ZNK9grpc_core6BitSetILm3ELm8EE6is_setEi(ptr noundef nonnull align 1 dereferenceable(1) %0, i32 noundef %1) #5 comdat align 2 {
  %3 = alloca ptr, align 8
  %4 = alloca i32, align 4
  store ptr %0, ptr %3, align 8, !tbaa !66
  store i32 %1, ptr %4, align 4, !tbaa !37
  %5 = load ptr, ptr %3, align 8
  %6 = getelementptr inbounds nuw %"class.grpc_core::BitSet", ptr %5, i32 0, i32 0
  %7 = load i32, ptr %4, align 4, !tbaa !37
  %8 = sext i32 %7 to i64
  %9 = call noundef i64 @_ZN9grpc_core6BitSetILm3ELm8EE8unit_forEm(i64 noundef %8)
  %10 = getelementptr inbounds nuw [1 x i8], ptr %6, i64 0, i64 %9
  %11 = load i8, ptr %10, align 1, !tbaa !19
  %12 = zext i8 %11 to i32
  %13 = load i32, ptr %4, align 4, !tbaa !37
  %14 = sext i32 %13 to i64
  %15 = call noundef zeroext i8 @_ZN9grpc_core6BitSetILm3ELm8EE8mask_forEm(i64 noundef %14)
  %16 = zext i8 %15 to i32
  %17 = and i32 %12, %16
  %18 = icmp ne i32 %17, 0
  ret i1 %18
}

; Function Attrs: mustprogress uwtable
define noundef zeroext i1 @_ZNK9grpc_core23CompressionAlgorithmSet5IsSetE26grpc_compression_algorithm(ptr noundef nonnull align 1 dereferenceable(1) %0, i32 noundef %1) #5 align 2 {
  %3 = alloca i1, align 1
  %4 = alloca ptr, align 8
  %5 = alloca i32, align 4
  %6 = alloca i64, align 8
  %7 = alloca i32, align 4
  store ptr %0, ptr %4, align 8, !tbaa !33
  store i32 %1, ptr %5, align 4, !tbaa !3
  %8 = load ptr, ptr %4, align 8
  call void @llvm.lifetime.start.p0(i64 8, ptr %6) #3
  %9 = load i32, ptr %5, align 4, !tbaa !3
  %10 = zext i32 %9 to i64
  store i64 %10, ptr %6, align 8, !tbaa !17
  %11 = load i64, ptr %6, align 8, !tbaa !17
  %12 = icmp ult i64 %11, 3
  br i1 %12, label %13, label %18

13:                                               ; preds = %2
  %14 = getelementptr inbounds nuw %"class.grpc_core::CompressionAlgorithmSet", ptr %8, i32 0, i32 0
  %15 = load i64, ptr %6, align 8, !tbaa !17
  %16 = trunc i64 %15 to i32
  %17 = call noundef zeroext i1 @_ZNK9grpc_core6BitSetILm3ELm8EE6is_setEi(ptr noundef nonnull align 1 dereferenceable(1) %14, i32 noundef %16)
  store i1 %17, ptr %3, align 1
  store i32 1, ptr %7, align 4
  br label %19

18:                                               ; preds = %2
  store i1 false, ptr %3, align 1
  store i32 1, ptr %7, align 4
  br label %19

19:                                               ; preds = %18, %13
  call void @llvm.lifetime.end.p0(i64 8, ptr %6) #3
  %20 = load i1, ptr %3, align 1
  ret i1 %20
}