; Function Attrs: mustprogress nofree norecurse nosync nounwind willreturn memory(argmem: read) uwtable
define noundef zeroext i1 @_ZNK9grpc_core23CompressionAlgorithmSet5IsSetE26grpc_compression_algorithm(ptr noundef nonnull readonly align 1 captures(none) dereferenceable(1) %0, i32 noundef %1) local_unnamed_addr #14 align 2 {
  %3 = icmp ult i32 %1, 3
  %4 = load i8, ptr %0, align 1
  %5 = trunc nuw i32 %1 to i8
  %6 = shl nuw nsw i8 1, %5
  %7 = and i8 %4, %6
  %8 = icmp ne i8 %7, 0
  %.0 = select i1 %3, i1 %8, i1 false
  ret i1 %.0
}